; Function Attrs: nofree nosync nounwind memory(readwrite, inaccessiblemem: none) uwtable
define range(i32 0, 2) i32 @Sbd_ManCutIsTopo_rec(ptr noundef %0, ptr noundef %1, i32 noundef %2) local_unnamed_addr #5 {
  %4 = getelementptr i8, ptr %1, i64 8
  %.val = load ptr, ptr %4, align 8, !tbaa !28
  %5 = sext i32 %2 to i64
  %6 = getelementptr inbounds i32, ptr %.val, i64 %5
  %7 = load i32, ptr %6, align 4, !tbaa !33
  %8 = lshr i32 %7, 1
  %9 = icmp slt i32 %7, 0
  %spec.select = select i1 %9, i32 %2, i32 %8
  %.not = icmp eq i32 %spec.select, 0
  br i1 %.not, label %common.ret35, label %10

10:                                               ; preds = %3
  %11 = getelementptr i8, ptr %0, i64 176
  %.val26 = load i32, ptr %11, align 8, !tbaa !34
  %12 = getelementptr i8, ptr %0, i64 616
  %.val27 = load ptr, ptr %12, align 8, !tbaa !50
  %13 = sext i32 %spec.select to i64
  %14 = getelementptr inbounds i32, ptr %.val27, i64 %13
  %15 = load i32, ptr %14, align 4, !tbaa !33
  %.not34 = icmp eq i32 %15, %.val26
  br i1 %.not34, label %common.ret35, label %16

16:                                               ; preds = %10
  store i32 %.val26, ptr %14, align 4, !tbaa !33
  %17 = getelementptr i8, ptr %0, i64 32
  %.val30 = load ptr, ptr %17, align 8, !tbaa !51
  %18 = getelementptr inbounds %struct.Gia_Obj_t_, ptr %.val30, i64 %13
  %.val31 = load i64, ptr %18, align 4
  %19 = and i64 %.val31, 2684354559
  %narrow.i.not = icmp eq i64 %19, 2684354559
  br i1 %narrow.i.not, label %common.ret35, label %20

common.ret35:                                     ; preds = %16, %3, %10, %20
  %common.ret35.op = phi i32 [ %33, %20 ], [ 1, %10 ], [ 1, %3 ], [ 0, %16 ]
  ret i32 %common.ret35.op

20:                                               ; preds = %16
  %21 = trunc i64 %.val31 to i32
  %22 = and i32 %21, 536870911
  %23 = sub nsw i32 %spec.select, %22
  %24 = tail call i32 @Sbd_ManCutIsTopo_rec(ptr noundef nonnull %0, ptr noundef nonnull %1, i32 noundef %23)
  %.val33 = load i64, ptr %18, align 4
  %25 = lshr i64 %.val33, 32
  %26 = trunc nuw i64 %25 to i32
  %27 = and i32 %26, 536870911
  %28 = sub nsw i32 %spec.select, %27
  %29 = tail call i32 @Sbd_ManCutIsTopo_rec(ptr noundef nonnull %0, ptr noundef nonnull %1, i32 noundef %28)
  %30 = icmp ne i32 %24, 0
  %31 = icmp ne i32 %29, 0
  %32 = select i1 %30, i1 %31, i1 false
  %33 = zext i1 %32 to i32
  br label %common.ret35
}